; Function Attrs: mustprogress uwtable
define internal noundef ptr @"_ZNSt17_Function_handlerIFP4exprS1_S1_EZN2bv6solver19internalize_circuitEP3appE4$_35E9_M_invokeERKSt9_Any_dataOS1_SC_"(ptr noundef nonnull readonly align 8 captures(none) dereferenceable(16) %0, ptr noundef nonnull readonly align 8 captures(none) dereferenceable(8) %1, ptr noundef nonnull readonly align 8 captures(none) dereferenceable(8) %2) #3 align 2 {
  %.val = load ptr, ptr %0, align 8, !tbaa !561
  %.val3 = load ptr, ptr %1, align 8, !tbaa !104
  %.val4 = load ptr, ptr %2, align 8, !tbaa !104
  %4 = getelementptr i8, ptr %.val, i64 128
  %.val.val = load i32, ptr %4, align 4, !tbaa !110
  %5 = getelementptr i8, ptr %.val, i64 136
  %.val.val5 = load ptr, ptr %5, align 8, !tbaa !122
  %6 = tail call noundef ptr @_ZN11ast_manager6mk_appEiiP4exprS1_(ptr noundef nonnull align 8 dereferenceable(976) %.val.val5, i32 noundef %.val.val, i32 noundef 17, ptr noundef %.val3, ptr noundef %.val4)
  ret ptr %6
}